; ModuleID = 'source-C-CXX/31/664.c'
source_filename = "source-C-CXX/31/664.c"
target datalayout = "e-m:e-p270:32:32-p271:32:32-p272:64:64-i64:64-f80:128-n8:16:32:64-S128"
target triple = "x86_64-pc-linux-gnu"

@.str = private unnamed_addr constant [3 x i8] c"%d\00", align 1
@.str.1 = private unnamed_addr constant [3 x i8] c"%s\00", align 1

; Function Attrs: nofree nounwind sspstrong uwtable
define dso_local void @main() local_unnamed_addr #0 {
  %1 = alloca i32, align 4
  %2 = alloca [100 x i8], align 16
  %3 = alloca [100 x i8], align 16
  %4 = bitcast i32* %1 to i8*
  call void @llvm.lifetime.start.p0i8(i64 4, i8* nonnull %4) #5
  %5 = call i32 (i8*, ...) @__isoc99_scanf(i8* getelementptr inbounds ([3 x i8], [3 x i8]* @.str, i64 0, i64 0), i32* nonnull %1)
  %6 = getelementptr inbounds [100 x i8], [100 x i8]* %2, i64 0, i64 0
  %7 = getelementptr inbounds [100 x i8], [100 x i8]* %3, i64 0, i64 0
  %8 = load i32, i32* %1, align 4, !tbaa !5
  %9 = icmp sgt i32 %8, 0
  br i1 %9, label %10, label %52

10:                                               ; preds = %0, %46
  %11 = phi i32 [ %49, %46 ], [ 0, %0 ]
  call void @llvm.lifetime.start.p0i8(i64 100, i8* nonnull %6) #5
  call void @llvm.lifetime.start.p0i8(i64 100, i8* nonnull %7) #5
  %12 = call i32 (i8*, ...) @__isoc99_scanf(i8* getelementptr inbounds ([3 x i8], [3 x i8]* @.str.1, i64 0, i64 0), i8* nonnull %6)
  %13 = call i64 @strlen(i8* noundef nonnull %6) #6
  %14 = trunc i64 %13 to i32
  %15 = call i32 (i8*, ...) @__isoc99_scanf(i8* getelementptr inbounds ([3 x i8], [3 x i8]* @.str.1, i64 0, i64 0), i8* nonnull %7)
  %16 = call i64 @strlen(i8* noundef nonnull %7) #6
  %17 = trunc i64 %16 to i32
  %18 = sub nsw i32 %14, %17
  %19 = icmp sgt i32 %17, 0
  br i1 %19, label %20, label %46

20:                                               ; preds = %10
  %21 = shl i64 %16, 32
  %22 = ashr exact i64 %21, 32
  br label %23

23:                                               ; preds = %20, %44
  %24 = phi i64 [ %22, %20 ], [ %26, %44 ]
  %25 = phi i32 [ %17, %20 ], [ %27, %44 ]
  %26 = add nsw i64 %24, -1
  %27 = add nsw i32 %25, -1
  %28 = add nsw i32 %27, %18
  %29 = sext i32 %28 to i64
  %30 = getelementptr inbounds [100 x i8], [100 x i8]* %2, i64 0, i64 %29
  %31 = load i8, i8* %30, align 1, !tbaa !9
  %32 = getelementptr inbounds [100 x i8], [100 x i8]* %3, i64 0, i64 %26
  %33 = load i8, i8* %32, align 1, !tbaa !9
  %34 = sub i8 %31, %33
  %35 = add i8 %34, 48
  store i8 %35, i8* %30, align 1, !tbaa !9
  %36 = icmp ugt i8 %34, 79
  br i1 %36, label %37, label %44

37:                                               ; preds = %23
  %38 = add i8 %34, 58
  store i8 %38, i8* %30, align 1, !tbaa !9
  %39 = add nsw i32 %28, -1
  %40 = sext i32 %39 to i64
  %41 = getelementptr inbounds [100 x i8], [100 x i8]* %2, i64 0, i64 %40
  %42 = load i8, i8* %41, align 1, !tbaa !9
  %43 = add i8 %42, -1
  store i8 %43, i8* %41, align 1, !tbaa !9
  br label %44

44:                                               ; preds = %23, %37
  %45 = icmp sgt i64 %24, 1
  br i1 %45, label %23, label %46, !llvm.loop !10

46:                                               ; preds = %44, %10
  %47 = call i32 (i8*, ...) @printf(i8* nonnull dereferenceable(1) getelementptr inbounds ([3 x i8], [3 x i8]* @.str.1, i64 0, i64 0), i8* nonnull %6)
  %48 = call i32 @putchar(i32 10)
  call void @llvm.lifetime.end.p0i8(i64 100, i8* nonnull %7) #5
  call void @llvm.lifetime.end.p0i8(i64 100, i8* nonnull %6) #5
  %49 = add nuw nsw i32 %11, 1
  %50 = load i32, i32* %1, align 4, !tbaa !5
  %51 = icmp slt i32 %49, %50
  br i1 %51, label %10, label %52, !llvm.loop !12

52:                                               ; preds = %46, %0
  call void @llvm.lifetime.end.p0i8(i64 4, i8* nonnull %4) #5
  ret void
}

; Function Attrs: argmemonly mustprogress nofree nosync nounwind willreturn
declare void @llvm.lifetime.start.p0i8(i64 immarg, i8* nocapture) #1

; Function Attrs: nofree nounwind
declare noundef i32 @__isoc99_scanf(i8* nocapture noundef readonly, ...) local_unnamed_addr #2

; Function Attrs: argmemonly mustprogress nofree nounwind readonly willreturn
declare i64 @strlen(i8* nocapture) local_unnamed_addr #3

; Function Attrs: nofree nounwind
declare noundef i32 @printf(i8* nocapture noundef readonly, ...) local_unnamed_addr #2

; Function Attrs: argmemonly mustprogress nofree nosync nounwind willreturn
declare void @llvm.lifetime.end.p0i8(i64 immarg, i8* nocapture) #1

; Function Attrs: nofree nounwind
declare noundef i32 @putchar(i32 noundef) local_unnamed_addr #4


!llvm.module.flags = !{!0, !1, !2, !3}
!llvm.ident = !{!4}

!0 = !{i32 1, !"wchar_size", i32 4}
!1 = !{i32 7, !"PIC Level", i32 2}
!2 = !{i32 7, !"PIE Level", i32 2}
!3 = !{i32 7, !"uwtable", i32 1}
!4 = !{!"clang version 13.0.0"}
!5 = !{!6, !6, i64 0}
!6 = !{!"int", !7, i64 0}
!7 = !{!"omnipotent char", !8, i64 0}
!8 = !{!"Simple C/C++ TBAA"}
!9 = !{!7, !7, i64 0}
!10 = distinct !{!10, !11}
!11 = !{!"llvm.loop.mustprogress"}
!12 = distinct !{!12, !11}
